target datalayout = "e-m:e-p270:32:32-p271:32:32-p272:64:64-i64:64-i128:128-f80:128-n8:16:32:64-S128"
target triple = "x86_64-pc-linux-gnu"

%"struct.ZXing::SymbologyIdentifier" = type { i8, i8, i8, i8 }
%"class.ZXing::ByteArray" = type { %"class.std::vector" }
%"class.std::vector" = type { %"struct.std::_Vector_base" }
%"struct.std::_Vector_base" = type { %"struct.std::_Vector_base<unsigned char, std::allocator<unsigned char>>::_Vector_impl" }
%"struct.std::_Vector_base<unsigned char, std::allocator<unsigned char>>::_Vector_impl" = type { %"struct.std::_Vector_base<unsigned char, std::allocator<unsigned char>>::_Vector_impl_data" }
%"struct.std::_Vector_base<unsigned char, std::allocator<unsigned char>>::_Vector_impl_data" = type { ptr, ptr, ptr }
%"class.ZXing::Result" = type <{ %"class.ZXing::Content", %"class.ZXing::Error", %"class.ZXing::Quadrilateral", %"class.ZXing::ReaderOptions", [4 x i8], %"struct.ZXing::StructuredAppendInfo", i32, [4 x i8], [4 x i8], i32, i8, i8, i8, [5 x i8] }>
%"class.ZXing::Content" = type <{ %"class.ZXing::ByteArray", %"class.std::vector.3", %"struct.ZXing::SymbologyIdentifier", i8, i8, [2 x i8] }>
%"class.std::vector.3" = type { %"struct.std::_Vector_base.4" }
%"struct.std::_Vector_base.4" = type { %"struct.std::_Vector_base<ZXing::Content::Encoding, std::allocator<ZXing::Content::Encoding>>::_Vector_impl" }
%"struct.std::_Vector_base<ZXing::Content::Encoding, std::allocator<ZXing::Content::Encoding>>::_Vector_impl" = type { %"struct.std::_Vector_base<ZXing::Content::Encoding, std::allocator<ZXing::Content::Encoding>>::_Vector_impl_data" }
%"struct.std::_Vector_base<ZXing::Content::Encoding, std::allocator<ZXing::Content::Encoding>>::_Vector_impl_data" = type { ptr, ptr, ptr }
%"class.ZXing::Error" = type <{ %"class.std::__cxx11::basic_string", ptr, i16, i8, [5 x i8] }>
%"class.std::__cxx11::basic_string" = type { %"struct.std::__cxx11::basic_string<char>::_Alloc_hider", i64, %union.anon }
%"struct.std::__cxx11::basic_string<char>::_Alloc_hider" = type { ptr }
%union.anon = type { i64, [8 x i8] }
%"class.ZXing::Quadrilateral" = type { %"struct.std::array" }
%"struct.std::array" = type { [4 x %"struct.ZXing::PointT"] }
%"struct.ZXing::PointT" = type { i32, i32 }
%"class.ZXing::ReaderOptions" = type { i32, i8, i8, i16, %"class.ZXing::Flags" }
%"class.ZXing::Flags" = type { i32 }
%"struct.ZXing::StructuredAppendInfo" = type { i32, i32, %"class.std::__cxx11::basic_string" }
%"class.std::allocator" = type { i8 }

; Function Attrs: mustprogress nounwind optsize uwtable
define linkonce_odr void @_ZNSt15__new_allocatorIcEC2ERKS0_(ptr noundef nonnull align 1 dereferenceable(1) %0, ptr noundef nonnull align 1 dereferenceable(1) %1) unnamed_addr #5 comdat align 2 {
  %3 = alloca ptr, align 8
  %4 = alloca ptr, align 8
  store ptr %0, ptr %3, align 8, !tbaa !197
  store ptr %1, ptr %4, align 8, !tbaa !197
  ret void
}

; Function Attrs: mustprogress nounwind optsize uwtable
define available_externally void @_ZNSaIcEC2ERKS_(ptr noundef nonnull align 1 dereferenceable(1) %0, ptr noundef nonnull align 1 dereferenceable(1) %1) unnamed_addr #5 align 2 {
  %3 = alloca ptr, align 8
  %4 = alloca ptr, align 8
  store ptr %0, ptr %3, align 8, !tbaa !86
  store ptr %1, ptr %4, align 8, !tbaa !86
  %5 = load ptr, ptr %3, align 8
  %6 = load ptr, ptr %4, align 8, !tbaa !86
  call void @_ZNSt15__new_allocatorIcEC2ERKS0_(ptr noundef nonnull align 1 dereferenceable(1) %5, ptr noundef nonnull align 1 dereferenceable(1) %6) #21
  ret void
}

; Function Attrs: mustprogress nounwind optsize uwtable
define linkonce_odr void @_ZNSt16allocator_traitsISaIcEE37select_on_container_copy_constructionERKS0_(ptr dead_on_unwind noalias writable sret(%"class.std::allocator") align 1 %0, ptr noundef nonnull align 1 dereferenceable(1) %1) #5 comdat align 2 {
  %3 = alloca ptr, align 8
  %4 = alloca ptr, align 8
  store ptr %0, ptr %3, align 8
  store ptr %1, ptr %4, align 8, !tbaa !86
  %5 = load ptr, ptr %4, align 8, !tbaa !86
  call void @_ZNSaIcEC2ERKS_(ptr noundef nonnull align 1 dereferenceable(1) %0, ptr noundef nonnull align 1 dereferenceable(1) %5) #21
  ret void
}

; Function Attrs: mustprogress nounwind optsize uwtable
define linkonce_odr noundef ptr @_ZNSt19__ptr_traits_ptr_toIPccLb0EE10pointer_toERc(ptr noundef nonnull align 1 dereferenceable(1) %0) #5 comdat align 2 {
  %2 = alloca ptr, align 8
  store ptr %0, ptr %2, align 8, !tbaa !88
  %3 = load ptr, ptr %2, align 8, !tbaa !88
  ret ptr %3
}

; Function Attrs: mustprogress nounwind optsize uwtable
define linkonce_odr noundef i64 @_ZNKSt7__cxx1112basic_stringIcSt11char_traitsIcESaIcEE6lengthEv(ptr noundef nonnull align 8 dereferenceable(32) %0) #5 comdat align 2 {
  %2 = alloca ptr, align 8
  store ptr %0, ptr %2, align 8, !tbaa !8
  %3 = load ptr, ptr %2, align 8
  %4 = getelementptr inbounds nuw %"class.std::__cxx11::basic_string", ptr %3, i32 0, i32 1
  %5 = load i64, ptr %4, align 8, !tbaa !180
  ret i64 %5
}

; Function Attrs: mustprogress nounwind optsize uwtable
define linkonce_odr noundef ptr @_ZNKSt7__cxx1112basic_stringIcSt11char_traitsIcESaIcEE7_M_dataEv(ptr noundef nonnull align 8 dereferenceable(32) %0) #5 comdat align 2 {
  %2 = alloca ptr, align 8
  store ptr %0, ptr %2, align 8, !tbaa !8
  %3 = load ptr, ptr %2, align 8
  %4 = getelementptr inbounds nuw %"class.std::__cxx11::basic_string", ptr %3, i32 0, i32 0
  %5 = getelementptr inbounds nuw %"struct.std::__cxx11::basic_string<char>::_Alloc_hider", ptr %4, i32 0, i32 0
  %6 = load ptr, ptr %5, align 8, !tbaa !172
  ret ptr %6
}

; Function Attrs: mustprogress nounwind optsize uwtable
define available_externally void @_ZNSaIcED2Ev(ptr noundef nonnull align 1 dereferenceable(1) %0) unnamed_addr #5 align 2 {
  %2 = alloca ptr, align 8
  store ptr %0, ptr %2, align 8, !tbaa !86
  ret void
}

; Function Attrs: mustprogress nounwind optsize uwtable
define linkonce_odr void @_ZNSt7__cxx1112basic_stringIcSt11char_traitsIcESaIcEE12_Alloc_hiderC2EPcOS3_(ptr noundef nonnull align 8 dereferenceable(8) %0, ptr noundef %1, ptr noundef nonnull align 1 dereferenceable(1) %2) unnamed_addr #5 comdat align 2 {
  %4 = alloca ptr, align 8
  %5 = alloca ptr, align 8
  %6 = alloca ptr, align 8
  store ptr %0, ptr %4, align 8, !tbaa !194
  store ptr %1, ptr %5, align 8, !tbaa !88
  store ptr %2, ptr %6, align 8, !tbaa !86
  %7 = load ptr, ptr %4, align 8
  %8 = load ptr, ptr %6, align 8, !tbaa !86
  call void @_ZNSaIcEC2ERKS_(ptr noundef nonnull align 1 dereferenceable(1) %7, ptr noundef nonnull align 1 dereferenceable(1) %8) #21
  %9 = getelementptr inbounds nuw %"struct.std::__cxx11::basic_string<char>::_Alloc_hider", ptr %7, i32 0, i32 0
  %10 = load ptr, ptr %5, align 8, !tbaa !88
  store ptr %10, ptr %9, align 8, !tbaa !196
  ret void
}

; Function Attrs: mustprogress optsize uwtable
define linkonce_odr void @_ZN9__gnu_cxx14__alloc_traitsISaIcEcE17_S_select_on_copyERKS1_(ptr dead_on_unwind noalias writable sret(%"class.std::allocator") align 1 %0, ptr noundef nonnull align 1 dereferenceable(1) %1) #0 comdat align 2 {
  %3 = alloca ptr, align 8
  %4 = alloca ptr, align 8
  store ptr %0, ptr %3, align 8
  store ptr %1, ptr %4, align 8, !tbaa !86
  %5 = load ptr, ptr %4, align 8, !tbaa !86
  call void @_ZNSt16allocator_traitsISaIcEE37select_on_container_copy_constructionERKS0_(ptr dead_on_unwind writable sret(%"class.std::allocator") align 1 %0, ptr noundef nonnull align 1 dereferenceable(1) %5) #20
  ret void
}

; Function Attrs: mustprogress nounwind optsize uwtable
define linkonce_odr noundef nonnull align 1 dereferenceable(1) ptr @_ZNKSt7__cxx1112basic_stringIcSt11char_traitsIcESaIcEE16_M_get_allocatorEv(ptr noundef nonnull align 8 dereferenceable(32) %0) #5 comdat align 2 {
  %2 = alloca ptr, align 8
  store ptr %0, ptr %2, align 8, !tbaa !8
  %3 = load ptr, ptr %2, align 8
  %4 = getelementptr inbounds nuw %"class.std::__cxx11::basic_string", ptr %3, i32 0, i32 0
  ret ptr %4
}

; Function Attrs: mustprogress nounwind optsize uwtable
define linkonce_odr noundef ptr @_ZNSt7__cxx1112basic_stringIcSt11char_traitsIcESaIcEE13_M_local_dataEv(ptr noundef nonnull align 8 dereferenceable(32) %0) #5 comdat align 2 {
  %2 = alloca ptr, align 8
  store ptr %0, ptr %2, align 8, !tbaa !8
  %3 = load ptr, ptr %2, align 8
  %4 = getelementptr inbounds nuw %"class.std::__cxx11::basic_string", ptr %3, i32 0, i32 2
  %5 = getelementptr inbounds [16 x i8], ptr %4, i64 0, i64 0
  %6 = call noundef ptr @_ZNSt19__ptr_traits_ptr_toIPccLb0EE10pointer_toERc(ptr noundef nonnull align 1 dereferenceable(1) %5) #21
  ret ptr %6
}

; Function Attrs: mustprogress optsize uwtable
define linkonce_odr void @_ZNSt7__cxx1112basic_stringIcSt11char_traitsIcESaIcEEC2ERKS4_(ptr noundef nonnull align 8 dereferenceable(32) %0, ptr noundef nonnull align 8 dereferenceable(32) %1) unnamed_addr #0 comdat align 2 personality ptr @__gxx_personality_v0 {
  %3 = alloca ptr, align 8
  %4 = alloca ptr, align 8
  %5 = alloca %"class.std::allocator", align 1
  %6 = alloca ptr, align 8
  %7 = alloca i32, align 4
  store ptr %0, ptr %3, align 8, !tbaa !8
  store ptr %1, ptr %4, align 8, !tbaa !8
  %8 = load ptr, ptr %3, align 8
  %9 = getelementptr inbounds nuw %"class.std::__cxx11::basic_string", ptr %8, i32 0, i32 0
  %10 = call noundef ptr @_ZNSt7__cxx1112basic_stringIcSt11char_traitsIcESaIcEE13_M_local_dataEv(ptr noundef nonnull align 8 dereferenceable(32) %8) #20
  call void @llvm.lifetime.start.p0(i64 1, ptr %5) #19
  %11 = load ptr, ptr %4, align 8, !tbaa !8
  %12 = call noundef nonnull align 1 dereferenceable(1) ptr @_ZNKSt7__cxx1112basic_stringIcSt11char_traitsIcESaIcEE16_M_get_allocatorEv(ptr noundef nonnull align 8 dereferenceable(32) %11) #20
  call void @_ZN9__gnu_cxx14__alloc_traitsISaIcEcE17_S_select_on_copyERKS1_(ptr dead_on_unwind writable sret(%"class.std::allocator") align 1 %5, ptr noundef nonnull align 1 dereferenceable(1) %12) #20
  invoke void @_ZNSt7__cxx1112basic_stringIcSt11char_traitsIcESaIcEE12_Alloc_hiderC2EPcOS3_(ptr noundef nonnull align 8 dereferenceable(8) %9, ptr noundef %10, ptr noundef nonnull align 1 dereferenceable(1) %5) #20
          to label %13 unwind label %22

13:                                               ; preds = %2
  call void @_ZNSaIcED2Ev(ptr noundef nonnull align 1 dereferenceable(1) %5) #21
  call void @llvm.lifetime.end.p0(i64 1, ptr %5) #19
  %14 = load ptr, ptr %4, align 8, !tbaa !8
  %15 = call noundef ptr @_ZNKSt7__cxx1112basic_stringIcSt11char_traitsIcESaIcEE7_M_dataEv(ptr noundef nonnull align 8 dereferenceable(32) %14) #20
  %16 = load ptr, ptr %4, align 8, !tbaa !8
  %17 = call noundef ptr @_ZNKSt7__cxx1112basic_stringIcSt11char_traitsIcESaIcEE7_M_dataEv(ptr noundef nonnull align 8 dereferenceable(32) %16) #20
  %18 = load ptr, ptr %4, align 8, !tbaa !8
  %19 = call noundef i64 @_ZNKSt7__cxx1112basic_stringIcSt11char_traitsIcESaIcEE6lengthEv(ptr noundef nonnull align 8 dereferenceable(32) %18) #21
  %20 = getelementptr inbounds nuw i8, ptr %17, i64 %19
  invoke void @_ZNSt7__cxx1112basic_stringIcSt11char_traitsIcESaIcEE12_M_constructIPcEEvT_S7_St20forward_iterator_tag(ptr noundef nonnull align 8 dereferenceable(32) %8, ptr noundef %15, ptr noundef %20) #20
          to label %21 unwind label %26

21:                                               ; preds = %13
  ret void

22:                                               ; preds = %2
  %23 = landingpad { ptr, i32 }
          cleanup
  %24 = extractvalue { ptr, i32 } %23, 0
  store ptr %24, ptr %6, align 8
  %25 = extractvalue { ptr, i32 } %23, 1
  store i32 %25, ptr %7, align 4
  call void @_ZNSaIcED2Ev(ptr noundef nonnull align 1 dereferenceable(1) %5) #21
  call void @llvm.lifetime.end.p0(i64 1, ptr %5) #19
  br label %30

26:                                               ; preds = %13
  %27 = landingpad { ptr, i32 }
          cleanup
  %28 = extractvalue { ptr, i32 } %27, 0
  store ptr %28, ptr %6, align 8
  %29 = extractvalue { ptr, i32 } %27, 1
  store i32 %29, ptr %7, align 4
  call void @_ZNSaIcED2Ev(ptr noundef nonnull align 8 dereferenceable(8) %9) #21
  br label %30

30:                                               ; preds = %26, %22
  %31 = load ptr, ptr %6, align 8
  %32 = load i32, ptr %7, align 4
  %33 = insertvalue { ptr, i32 } poison, ptr %31, 0
  %34 = insertvalue { ptr, i32 } %33, i32 %32, 1
  resume { ptr, i32 } %34
}

; Function Attrs: mustprogress optsize uwtable
define void @_ZNK5ZXing6Result10sequenceIdB5cxx11Ev(ptr dead_on_unwind noalias writable sret(%"class.std::__cxx11::basic_string") align 8 %0, ptr noundef nonnull align 8 dereferenceable(211) %1) #0 align 2 {
  %3 = alloca ptr, align 8
  %4 = alloca ptr, align 8
  store ptr %0, ptr %3, align 8
  store ptr %1, ptr %4, align 8, !tbaa !3
  %5 = load ptr, ptr %4, align 8
  %6 = getelementptr inbounds nuw %"class.ZXing::Result", ptr %5, i32 0, i32 5
  %7 = getelementptr inbounds nuw %"struct.ZXing::StructuredAppendInfo", ptr %6, i32 0, i32 2
  call void @_ZNSt7__cxx1112basic_stringIcSt11char_traitsIcESaIcEEC2ERKS4_(ptr noundef nonnull align 8 dereferenceable(32) %0, ptr noundef nonnull align 8 dereferenceable(32) %7) #20
  ret void
}