; Function Attrs: mustprogress optsize uwtable
define void @_ZNK5ZXing6Result10sequenceIdB5cxx11Ev(ptr dead_on_unwind noalias nonnull writable sret(%"class.std::__cxx11::basic_string") align 8 %0, ptr noundef nonnull readonly align 8 captures(none) dereferenceable(211) %1) local_unnamed_addr #0 align 2 personality ptr @__gxx_personality_v0 {
  %3 = getelementptr inbounds nuw i8, ptr %1, i64 160
  %4 = getelementptr inbounds nuw i8, ptr %0, i64 16
  store ptr %4, ptr %0, align 8, !tbaa !15
  %5 = load ptr, ptr %3, align 8, !tbaa !3
  %6 = getelementptr inbounds nuw i8, ptr %1, i64 168
  %7 = load i64, ptr %6, align 8, !tbaa !11
  %8 = getelementptr inbounds nuw i8, ptr %5, i64 %7
  tail call void @_ZNSt7__cxx1112basic_stringIcSt11char_traitsIcESaIcEE12_M_constructIPcEEvT_S7_St20forward_iterator_tag(ptr noundef nonnull align 8 dereferenceable(32) %0, ptr noundef %5, ptr noundef %8) #27
  ret void
}